Certificate:
    Data:
        Version: 3 (0x2)
        Serial Number: 1 (0x1)
        Signature Algorithm: sha1WithRSAEncryption
        Issuer: C=US, ST=CA, L=SanFrancisco, O=Fort-Funston, CN=Fort-Funston CA/emailAddress=adm@host.com
        Validity
            Not Before: Feb  6 16:32:32 2009 GMT
            Not After : Feb  4 16:32:32 2019 GMT
        Subject: C=US, ST=CA, L=SanFrancisco, O=Fort-Funston, CN=server/emailAddress=adm@host.com
        Subject Public Key Info:
            Public Key Algorithm: rsaEncryption
            RSA Public Key: (1024 bit)
                Modulus (1024 bit):
                    00:af:4f:36:4c:64:29:cf:61:22:64:88:90:9e:83:
                    9e:e5:ca:7b:ad:ec:b0:68:d7:19:52:d9:56:ca:59:
                    3a:f4:c9:de:ee:8c:9c:92:4b:28:a2:81:58:a0:12:
                    83:81:a5:ee:0b:f7:f7:8b:71:0a:08:d2:24:f9:fc:
                    b4:5e:81:93:af:3e:a8:19:0f:57:ca:cf:12:ef:ea:
                    d9:d6:f5:c4:1d:e1:ca:1d:9d:89:3a:a1:05:a5:ad:
                    35:9f:0f:57:85:46:ad:f5:98:08:85:ee:77:88:46:
                    b3:f2:10:b6:59:06:a1:c2:31:8d:f4:51:8d:96:96:
                    f3:20:10:8f:76:29:67:03:49
                Exponent: 65537 (0x10001)
        X509v3 extensions:
            X509v3 Basic Constraints: 
                CA:FALSE
            Netscape Cert Type: 
                SSL Server
            Netscape Comment: 
                Easy-RSA Generated Server Certificate
            X509v3 Subject Key Identifier: 
                F7:28:81:D9:B0:27:DC:7B:9B:93:00:FB:37:CC:8F:68:12:94:99:A2
            X509v3 Authority Key Identifier: 
                keyid:86:0D:77:37:0A:D6:97:AA:4F:06:C2:44:94:37:C9:EC:0D:55:69:A3
                DirName:/C=US/ST=CA/L=SanFrancisco/O=Fort-Funston/CN=Fort-Funston CA/emailAddress=adm@host.com
                serial:B8:D5:42:62:A3:8E:54:6C

            X509v3 Extended Key Usage: 
                TLS Web Server Authentication
            X509v3 Key Usage: 
                Digital Signature, Key Encipherment
    Signature Algorithm: sha1WithRSAEncryption
        5d:8b:06:ee:c3:1e:d7:96:46:d9:c8:8c:61:4b:34:14:d9:7f:
        05:d3:fd:ac:e5:cb:72:31:2a:e8:f9:ec:78:ce:7e:df:75:cd:
        48:dd:d8:3b:2a:3d:93:12:0e:3f:67:fb:29:d3:ae:3b:be:be:
        04:e2:b6:b2:d3:e4:43:09:36:1f:2e:6e:97:71:8b:17:a0:68:
        2b:a5:ee:46:c1:cb:7d:04:50:1b:98:16:c9:d9:f6:dc:59:1f:
        c0:eb:9c:2c:ba:ba:75:65:84:e6:26:05:b0:25:80:fa:d0:3e:
        1a:48:dc:52:cc:4a:dd:76:01:b2:c2:e4:6e:36:35:3e:67:0e:
        76:57
-----BEGIN CERTIFICATE-----
MIIDvDCCAyWgAwIBAgIBATANBgkqhkiG9w0BAQUFADB/MQswCQYDVQQGEwJVUzEL
MAkGA1UECBMCQ0ExFTATBgNVBAcTDFNhbkZyYW5jaXNjbzEVMBMGA1UEChMMRm9y
dC1GdW5zdG9uMRgwFgYDVQQDEw9Gb3J0LUZ1bnN0b24gQ0ExGzAZBgkqhkiG9w0B
CQEWDGFkbUBob3N0LmNvbTAeFw0wOTAyMDYxNjMyMzJaFw0xOTAyMDQxNjMyMzJa
MHYxCzAJBgNVBAYTAlVTMQswCQYDVQQIEwJDQTEVMBMGA1UEBxMMU2FuRnJhbmNp
c2NvMRUwEwYDVQQKEwxGb3J0LUZ1bnN0b24xDzANBgNVBAMTBnNlcnZlcjEbMBkG
CSqGSIb3DQEJARYMYWRtQGhvc3QuY29tMIGfMA0GCSqGSIb3DQEBAQUAA4GNADCB
iQKBgQCvTzZMZCnPYSJkiJCeg57lynut7LBo1xlS2VbKWTr0yd7ujJySSyiigVig
EoOBpe4L9/eLcQoI0iT5/LRegZOvPqgZD1fKzxLv6tnW9cQd4codnYk6oQWlrTWf
D1eFRq31mAiF7neIRrPyELZZBqHCMY30UY2WlvMgEI92KWcDSQIDAQABo4IBTzCC
AUswCQYDVR0TBAIwADARBglghkgBhvhCAQEEBAMCBkAwNAYJYIZIAYb4QgENBCcW
JUVhc3ktUlNBIEdlbmVyYXRlZCBTZXJ2ZXIgQ2VydGlmaWNhdGUwHQYDVR0OBBYE
FPcogdmwJ9x7m5MA+zfMj2gSlJmiMIGzBgNVHSMEgaswgaiAFIYNdzcK1peqTwbC
RJQ3yewNVWmjoYGEpIGBMH8xCzAJBgNVBAYTAlVTMQswCQYDVQQIEwJDQTEVMBMG
A1UEBxMMU2FuRnJhbmNpc2NvMRUwEwYDVQQKEwxGb3J0LUZ1bnN0b24xGDAWBgNV
BAMTD0ZvcnQtRnVuc3RvbiBDQTEbMBkGCSqGSIb3DQEJARYMYWRtQGhvc3QuY29t
ggkAuNVCYqOOVGwwEwYDVR0lBAwwCgYIKwYBBQUHAwEwCwYDVR0PBAQDAgWgMA0G
CSqGSIb3DQEBBQUAA4GBAF2LBu7DHteWRtnIjGFLNBTZfwXT/azly3IxKuj57HjO
ft91zUjd2DsqPZMSDj9n+ynTrju+vgTitrLT5EMJNh8ubpdxixegaCul7kbBy30E
UBuYFsnZ9txZH8DrnCy6unVlhOYmBbAlgPrQPhpI3FLMSt12AbLC5G42NT5nDnZX
-----END CERTIFICATE-----
