Certificate:
    Data:
        Version: 3 (0x2)
        Serial Number: 1 (0x1)
        Signature Algorithm: sha1WithRSAEncryption
        Issuer: C=US, ST=CA, L=SanFrancisco, O=Fort-Funston, CN=server/emailAddress=adm@host.com
        Validity
            Not Before: Nov 20 07:08:40 2008 GMT
            Not After : Nov 18 07:08:40 2018 GMT
        Subject: C=US, ST=CA, L=SanFrancisco, O=Fort-Funston, CN=server/emailAddress=adm@host.com
        Subject Public Key Info:
            Public Key Algorithm: rsaEncryption
            RSA Public Key: (1024 bit)
                Modulus (1024 bit):
                    00:b6:1f:49:d1:14:d8:ac:dd:f7:33:58:d7:df:cb:
                    be:68:9d:0a:d6:27:82:ae:a5:90:1d:69:7a:d6:10:
                    c8:45:5f:4b:6d:52:bc:1f:77:d1:17:86:17:cd:0c:
                    52:b7:73:05:18:dd:d9:70:4b:d4:b2:0d:9a:38:91:
                    d1:7a:00:8a:38:4d:7b:3f:51:6b:65:ef:ee:c4:d3:
                    51:66:2c:c7:9f:c8:56:95:ea:e0:c6:67:a5:6c:c2:
                    a6:94:a7:d5:a7:3e:cf:6d:4e:2d:8b:78:27:18:06:
                    3f:dd:e2:16:86:a9:9e:9b:0c:b0:15:76:d8:60:04:
                    38:cd:f9:2b:a4:8d:8b:4c:53
                Exponent: 65537 (0x10001)
        X509v3 extensions:
            X509v3 Basic Constraints:
                CA:FALSE
            Netscape Cert Type:
                SSL Server
            Netscape Comment:
                Easy-RSA Generated Server Certificate
            X509v3 Subject Key Identifier:
                A7:6E:4B:FE:1B:1C:EB:53:C1:D2:FA:C1:48:E7:25:C8:B7:B3:B8:58
            X509v3 Authority Key Identifier:
                keyid:AE:33:B6:BE:36:CB:4E:8B:02:5B:64:D4:1F:59:8E:22:28:8F:0B:1C
                DirName:/C=US/ST=CA/L=SanFrancisco/O=Fort-Funston/CN=server/emailAddress=adm@host.com
                serial:DA:01:C5:B7:12:26:D6:10

            X509v3 Extended Key Usage:
                TLS Web Server Authentication
            X509v3 Key Usage:
                Digital Signature, Key Encipherment
    Signature Algorithm: sha1WithRSAEncryption
        61:34:c2:26:dc:5a:98:48:a4:7f:3b:aa:15:52:df:e0:37:b5:
        90:7a:3b:bd:83:a7:70:12:bd:31:1a:3e:a1:98:54:bf:36:82:
        2e:b7:b4:71:91:fe:a3:93:0d:a7:f1:04:52:c0:ab:63:19:27:
        1f:6e:27:76:ea:ae:cb:ed:b1:17:e6:2c:40:f0:21:10:28:58:
        85:e0:9a:a7:8b:37:4f:63:74:55:e4:13:c9:fb:62:dc:95:ba:
        2b:77:34:01:d5:31:84:49:26:77:b8:9c:47:92:a5:8e:51:eb:
        79:b4:cd:7f:f8:4d:10:63:cd:19:62:c0:25:5a:bd:00:f2:d5:
        40:d2
-----BEGIN CERTIFICATE-----
MIIDqDCCAxGgAwIBAgIBATANBgkqhkiG9w0BAQUFADB2MQswCQYDVQQGEwJVUzEL
MAkGA1UECBMCQ0ExFTATBgNVBAcTDFNhbkZyYW5jaXNjbzEVMBMGA1UEChMMRm9y
dC1GdW5zdG9uMQ8wDQYDVQQDEwZzZXJ2ZXIxGzAZBgkqhkiG9w0BCQEWDGFkbUBo
b3N0LmNvbTAeFw0wODExMjAwNzA4NDBaFw0xODExMTgwNzA4NDBaMHYxCzAJBgNV
BAYTAlVTMQswCQYDVQQIEwJDQTEVMBMGA1UEBxMMU2FuRnJhbmNpc2NvMRUwEwYD
VQQKEwxGb3J0LUZ1bnN0b24xDzANBgNVBAMTBnNlcnZlcjEbMBkGCSqGSIb3DQEJ
ARYMYWRtQGhvc3QuY29tMIGfMA0GCSqGSIb3DQEBAQUAA4GNADCBiQKBgQC2H0nR
FNis3fczWNffy75onQrWJ4KupZAdaXrWEMhFX0ttUrwfd9EXhhfNDFK3cwUY3dlw
S9SyDZo4kdF6AIo4TXs/UWtl7+7E01FmLMefyFaV6uDGZ6VswqaUp9WnPs9tTi2L
eCcYBj/d4haGqZ6bDLAVdthgBDjN+SukjYtMUwIDAQABo4IBRDCCAUAwCQYDVR0T
BAIwADARBglghkgBhvhCAQEEBAMCBkAwNAYJYIZIAYb4QgENBCcWJUVhc3ktUlNB
IEdlbmVyYXRlZCBTZXJ2ZXIgQ2VydGlmaWNhdGUwHQYDVR0OBBYEFKduS/4bHOtT
wdL6wUjnJci3s7hYMIGoBgNVHSMEgaAwgZ2AFK4ztr42y06LAltk1B9ZjiIojwsc
oXqkeDB2MQswCQYDVQQGEwJVUzELMAkGA1UECBMCQ0ExFTATBgNVBAcTDFNhbkZy
YW5jaXNjbzEVMBMGA1UEChMMRm9ydC1GdW5zdG9uMQ8wDQYDVQQDEwZzZXJ2ZXIx
GzAZBgkqhkiG9w0BCQEWDGFkbUBob3N0LmNvbYIJANoBxbcSJtYQMBMGA1UdJQQM
MAoGCCsGAQUFBwMBMAsGA1UdDwQEAwIFoDANBgkqhkiG9w0BAQUFAAOBgQBhNMIm
3FqYSKR/O6oVUt/gN7WQeju9g6dwEr0xGj6hmFS/NoIut7Rxkf6jkw2n8QRSwKtj
GScfbid26q7L7bEX5ixA8CEQKFiF4JqnizdPY3RV5BPJ+2LclbordzQB1TGESSZ3
uJxHkqWOUet5tM1/+E0QY80ZYsAlWr0A8tVA0g==
-----END CERTIFICATE-----
